; Function Attrs: nounwind uwtable
define noalias nonnull ptr @l_Lean_Elab_Tactic_Omega_commitWhen___rarg___lambda__1(ptr noundef %0, ptr noundef readnone captures(none) %1, ptr noundef readnone captures(none) %2, ptr noundef readnone captures(none) %3, ptr noundef readnone captures(none) %4, i8 noundef zeroext %5, ptr noundef readnone captures(none) %6, ptr noundef readnone captures(none) %7, ptr noundef readnone captures(none) %8, ptr noundef readnone captures(none) %9, ptr noundef readnone captures(none) %10, ptr noundef %11) local_unnamed_addr #1 {
  tail call void @lean_inc_heartbeat() #4
  %13 = tail call noalias ptr @mi_malloc_small(i64 noundef 24) #4
  %14 = icmp eq ptr %13, null
  br i1 %14, label %15, label %lean_alloc_ctor.exit

15:                                               ; preds = %12
  tail call void @lean_internal_panic_out_of_memory() #5
  unreachable

lean_alloc_ctor.exit:                             ; preds = %12
  %16 = getelementptr inbounds nuw i8, ptr %13, i64 4
  store i32 1, ptr %13, align 4, !tbaa !8
  store i32 131096, ptr %16, align 4
  %17 = getelementptr inbounds nuw i8, ptr %13, i64 8
  store ptr %0, ptr %17, align 8, !tbaa !4
  %18 = getelementptr inbounds nuw i8, ptr %13, i64 16
  store ptr %11, ptr %18, align 8, !tbaa !4
  ret ptr %13
}